; Function Attrs: mustprogress nounwind uwtable
define void @_ZN3spv10spirvbin_t5remapERSt6vectorIjSaIjEEj(ptr noundef nonnull align 8 dereferenceable(473) %0, ptr nocapture noundef nonnull align 8 dereferenceable(24) %1, i32 noundef %2) local_unnamed_addr #0 align 2 {
  %4 = getelementptr inbounds i8, ptr %0, i64 32
  %5 = load ptr, ptr %4, align 8
  %6 = getelementptr inbounds i8, ptr %0, i64 40
  %7 = load ptr, ptr %6, align 8
  %.not.i.i = icmp eq ptr %7, %5
  br i1 %.not.i.i, label %_ZNSt6vectorINSt7__cxx1112basic_stringIcSt11char_traitsIcESaIcEEESaIS5_EE5clearEv.exit, label %.lr.ph.i.i.i.i.i

.lr.ph.i.i.i.i.i:                                 ; preds = %3, %.lr.ph.i.i.i.i.i
  %.05.i.i.i.i.i = phi ptr [ %8, %.lr.ph.i.i.i.i.i ], [ %5, %3 ]
  tail call void @_ZNSt7__cxx1112basic_stringIcSt11char_traitsIcESaIcEED1Ev(ptr noundef nonnull align 8 dereferenceable(32) %.05.i.i.i.i.i) #24
  %8 = getelementptr inbounds i8, ptr %.05.i.i.i.i.i, i64 32
  %.not.i.i.i.i.i = icmp eq ptr %8, %7
  br i1 %.not.i.i.i.i.i, label %_ZSt8_DestroyIPNSt7__cxx1112basic_stringIcSt11char_traitsIcESaIcEEES5_EvT_S7_RSaIT0_E.exit.i.i, label %.lr.ph.i.i.i.i.i, !llvm.loop !99

_ZSt8_DestroyIPNSt7__cxx1112basic_stringIcSt11char_traitsIcESaIcEEES5_EvT_S7_RSaIT0_E.exit.i.i: ; preds = %.lr.ph.i.i.i.i.i
  store ptr %5, ptr %6, align 8
  br label %_ZNSt6vectorINSt7__cxx1112basic_stringIcSt11char_traitsIcESaIcEEESaIS5_EE5clearEv.exit

_ZNSt6vectorINSt7__cxx1112basic_stringIcSt11char_traitsIcESaIcEEESaIS5_EE5clearEv.exit: ; preds = %3, %_ZSt8_DestroyIPNSt7__cxx1112basic_stringIcSt11char_traitsIcESaIcEEES5_EvT_S7_RSaIT0_E.exit.i.i
  %9 = getelementptr inbounds i8, ptr %0, i64 8
  %10 = getelementptr inbounds i8, ptr %0, i64 16
  %11 = getelementptr inbounds i8, ptr %0, i64 24
  %12 = load ptr, ptr %11, align 8
  %13 = load ptr, ptr %1, align 8
  %14 = getelementptr inbounds i8, ptr %1, i64 8
  %15 = getelementptr inbounds i8, ptr %1, i64 16
  %16 = load <2 x ptr>, ptr %9, align 8
  store ptr %13, ptr %9, align 8
  %17 = load ptr, ptr %14, align 8
  store ptr %17, ptr %10, align 8
  %18 = load ptr, ptr %15, align 8
  store ptr %18, ptr %11, align 8
  store <2 x ptr> %16, ptr %1, align 8
  store ptr %12, ptr %15, align 8
  tail call void @_ZN3spv10spirvbin_t5remapEj(ptr noundef nonnull align 8 dereferenceable(473) %0, i32 noundef %2)
  %19 = load ptr, ptr %11, align 8
  %20 = load ptr, ptr %1, align 8
  %21 = load <2 x ptr>, ptr %9, align 8
  store ptr %20, ptr %9, align 8
  %22 = load ptr, ptr %14, align 8
  store ptr %22, ptr %10, align 8
  %23 = load ptr, ptr %15, align 8
  store ptr %23, ptr %11, align 8
  store <2 x ptr> %21, ptr %1, align 8
  store ptr %19, ptr %15, align 8
  ret void
}